target datalayout = "e-m:e-p270:32:32-p271:32:32-p272:64:64-i64:64-i128:128-f80:128-n8:16:32:64-S128"
target triple = "x86_64-pc-linux-gnu"

@_ZN7rocksdb16ThreadStatusUtil27thread_updater_local_cache_E = thread_local global ptr null, align 8
@_ZN7rocksdb16ThreadStatusUtil27thread_updater_initialized_E = thread_local global i8 0, align 1

; Function Attrs: mustprogress uwtable
define noundef zeroext i1 @_ZN7rocksdb16ThreadStatusUtil27MaybeInitThreadLocalUpdaterEPKNS_3EnvE(ptr noundef %0) #3 align 2 {
  %2 = alloca ptr, align 8
  store ptr %0, ptr %2, align 8, !tbaa !39
  %3 = call align 1 ptr @llvm.threadlocal.address.p0(ptr align 1 @_ZN7rocksdb16ThreadStatusUtil27thread_updater_initialized_E)
  %4 = load i8, ptr %3, align 1, !tbaa !47, !range !49, !noundef !50
  %5 = trunc i8 %4 to i1
  br i1 %5, label %17, label %6

6:                                                ; preds = %1
  %7 = load ptr, ptr %2, align 8, !tbaa !39
  %8 = icmp ne ptr %7, null
  br i1 %8, label %9, label %17

9:                                                ; preds = %6
  %10 = call align 1 ptr @llvm.threadlocal.address.p0(ptr align 1 @_ZN7rocksdb16ThreadStatusUtil27thread_updater_initialized_E)
  store i8 1, ptr %10, align 1, !tbaa !47
  %11 = load ptr, ptr %2, align 8, !tbaa !39
  %12 = load ptr, ptr %11, align 8, !tbaa !45
  %13 = getelementptr inbounds ptr, ptr %12, i64 80
  %14 = load ptr, ptr %13, align 8
  %15 = call noundef ptr %14(ptr noundef nonnull align 8 dereferenceable(72) %11)
  %16 = call align 8 ptr @llvm.threadlocal.address.p0(ptr align 8 @_ZN7rocksdb16ThreadStatusUtil27thread_updater_local_cache_E)
  store ptr %15, ptr %16, align 8, !tbaa !43
  br label %17

17:                                               ; preds = %9, %6, %1
  %18 = call align 8 ptr @llvm.threadlocal.address.p0(ptr align 8 @_ZN7rocksdb16ThreadStatusUtil27thread_updater_local_cache_E)
  %19 = load ptr, ptr %18, align 8, !tbaa !43
  %20 = icmp ne ptr %19, null
  ret i1 %20
}

; Function Attrs: mustprogress uwtable
define void @_ZN7rocksdb16ThreadStatusUtil19NewColumnFamilyInfoEPKNS_2DBEPKNS_16ColumnFamilyDataERKNSt7__cxx1112basic_stringIcSt11char_traitsIcESaIcEEEPKNS_3EnvE(ptr noundef %0, ptr noundef %1, ptr noundef nonnull align 8 dereferenceable(32) %2, ptr noundef %3) #3 align 2 {
  %5 = alloca ptr, align 8
  %6 = alloca ptr, align 8
  %7 = alloca ptr, align 8
  %8 = alloca ptr, align 8
  store ptr %0, ptr %5, align 8, !tbaa !60
  store ptr %1, ptr %6, align 8, !tbaa !51
  store ptr %2, ptr %7, align 8, !tbaa !16
  store ptr %3, ptr %8, align 8, !tbaa !39
  %9 = load ptr, ptr %8, align 8, !tbaa !39
  %10 = call noundef zeroext i1 @_ZN7rocksdb16ThreadStatusUtil27MaybeInitThreadLocalUpdaterEPKNS_3EnvE(ptr noundef %9)
  br i1 %10, label %12, label %11

11:                                               ; preds = %4
  br label %27

12:                                               ; preds = %4
  %13 = call align 8 ptr @llvm.threadlocal.address.p0(ptr align 8 @_ZN7rocksdb16ThreadStatusUtil27thread_updater_local_cache_E)
  %14 = load ptr, ptr %13, align 8, !tbaa !43
  %15 = icmp ne ptr %14, null
  br i1 %15, label %16, label %27

16:                                               ; preds = %12
  %17 = call align 8 ptr @llvm.threadlocal.address.p0(ptr align 8 @_ZN7rocksdb16ThreadStatusUtil27thread_updater_local_cache_E)
  %18 = load ptr, ptr %17, align 8, !tbaa !43
  %19 = load ptr, ptr %5, align 8, !tbaa !60
  %20 = load ptr, ptr %5, align 8, !tbaa !60
  %21 = load ptr, ptr %20, align 8, !tbaa !45
  %22 = getelementptr inbounds ptr, ptr %21, i64 96
  %23 = load ptr, ptr %22, align 8
  %24 = call noundef nonnull align 8 dereferenceable(32) ptr %23(ptr noundef nonnull align 8 dereferenceable(8) %20)
  %25 = load ptr, ptr %6, align 8, !tbaa !51
  %26 = load ptr, ptr %7, align 8, !tbaa !16
  call void @_ZN7rocksdb19ThreadStatusUpdater19NewColumnFamilyInfoEPKvRKNSt7__cxx1112basic_stringIcSt11char_traitsIcESaIcEEES2_SA_(ptr noundef nonnull align 8 dereferenceable(216) %18, ptr noundef %19, ptr noundef nonnull align 8 dereferenceable(32) %24, ptr noundef %25, ptr noundef nonnull align 8 dereferenceable(32) %26)
  br label %27

27:                                               ; preds = %11, %16, %12
  ret void
}