; Function Attrs: mustprogress uwtable
define void @_ZN7rocksdb16ThreadStatusUtil19NewColumnFamilyInfoEPKNS_2DBEPKNS_16ColumnFamilyDataERKNSt7__cxx1112basic_stringIcSt11char_traitsIcESaIcEEEPKNS_3EnvE(ptr noundef %0, ptr noundef %1, ptr noundef nonnull align 8 dereferenceable(32) %2, ptr noundef %3) local_unnamed_addr #3 align 2 {
  %5 = tail call align 1 ptr @llvm.threadlocal.address.p0(ptr align 1 @_ZN7rocksdb16ThreadStatusUtil27thread_updater_initialized_E)
  %6 = load i8, ptr %5, align 1, !tbaa !14, !range !16, !noundef !17
  %7 = trunc nuw i8 %6 to i1
  %8 = icmp eq ptr %3, null
  %or.cond.not.i = or i1 %8, %7
  br i1 %or.cond.not.i, label %._crit_edge.i, label %9

._crit_edge.i:                                    ; preds = %4
  %.pre.i = tail call align 8 ptr @llvm.threadlocal.address.p0(ptr align 8 @_ZN7rocksdb16ThreadStatusUtil27thread_updater_local_cache_E)
  %.pre = load ptr, ptr %.pre.i, align 8, !tbaa !18
  br label %_ZN7rocksdb16ThreadStatusUtil27MaybeInitThreadLocalUpdaterEPKNS_3EnvE.exit

9:                                                ; preds = %4
  store i8 1, ptr %5, align 1, !tbaa !14
  %10 = load ptr, ptr %3, align 8, !tbaa !20
  %11 = getelementptr inbounds nuw i8, ptr %10, i64 640
  %12 = load ptr, ptr %11, align 8
  %13 = tail call noundef ptr %12(ptr noundef nonnull align 8 dereferenceable(72) %3)
  %14 = tail call align 8 ptr @llvm.threadlocal.address.p0(ptr align 8 @_ZN7rocksdb16ThreadStatusUtil27thread_updater_local_cache_E)
  store ptr %13, ptr %14, align 8, !tbaa !18
  br label %_ZN7rocksdb16ThreadStatusUtil27MaybeInitThreadLocalUpdaterEPKNS_3EnvE.exit

_ZN7rocksdb16ThreadStatusUtil27MaybeInitThreadLocalUpdaterEPKNS_3EnvE.exit: ; preds = %._crit_edge.i, %9
  %.pre-phi = phi ptr [ %.pre.i, %._crit_edge.i ], [ %14, %9 ]
  %15 = phi ptr [ %.pre, %._crit_edge.i ], [ %13, %9 ]
  %16 = icmp ne ptr %15, null
  %17 = load ptr, ptr %.pre-phi, align 8
  %18 = icmp ne ptr %17, null
  %or.cond = select i1 %16, i1 %18, i1 false
  br i1 %or.cond, label %19, label %24

19:                                               ; preds = %_ZN7rocksdb16ThreadStatusUtil27MaybeInitThreadLocalUpdaterEPKNS_3EnvE.exit
  %20 = load ptr, ptr %0, align 8, !tbaa !20
  %21 = getelementptr inbounds nuw i8, ptr %20, i64 768
  %22 = load ptr, ptr %21, align 8
  %23 = tail call noundef nonnull align 8 dereferenceable(32) ptr %22(ptr noundef nonnull align 8 dereferenceable(8) %0)
  tail call void @_ZN7rocksdb19ThreadStatusUpdater19NewColumnFamilyInfoEPKvRKNSt7__cxx1112basic_stringIcSt11char_traitsIcESaIcEEES2_SA_(ptr noundef nonnull align 8 dereferenceable(216) %17, ptr noundef nonnull %0, ptr noundef nonnull align 8 dereferenceable(32) %23, ptr noundef %1, ptr noundef nonnull align 8 dereferenceable(32) %2)
  br label %24

24:                                               ; preds = %_ZN7rocksdb16ThreadStatusUtil27MaybeInitThreadLocalUpdaterEPKNS_3EnvE.exit, %19
  ret void
}